target datalayout = "e-m:e-p270:32:32-p271:32:32-p272:64:64-i64:64-i128:128-f80:128-n8:16:32:64-S128"
target triple = "x86_64-pc-linux-gnu"

@.str = private unnamed_addr constant [6 x i8] c"line0\00", align 1
@.str.1 = private unnamed_addr constant [123 x i8] c"generated/home/dtcxzyw/WorkSpace/Projects/compilers/llvm-opt-benchmark/bench/gromacs/gromacs/src/gromacs/utility/strdb.cpp\00", align 1
@stderr = external global ptr, align 8
@.str.2 = private unnamed_addr constant [74 x i8] c"Warning: line length exceeds buffer length (%d), data might be corrupted\0A\00", align 1
@.str.3 = private unnamed_addr constant [58 x i8] c"Warning: file does not end with a newline, last line:\0A%s\0A\00", align 1

; Function Attrs: inlinehint mustprogress uwtable
define internal void @_ZL14gmx_sfree_implIcEvPKcS1_iPT_(ptr noundef %0, ptr noundef %1, i32 noundef %2, ptr noundef %3) #2 {
  %5 = alloca ptr, align 8
  %6 = alloca ptr, align 8
  %7 = alloca i32, align 4
  %8 = alloca ptr, align 8
  store ptr %0, ptr %5, align 8, !tbaa !9
  store ptr %1, ptr %6, align 8, !tbaa !9
  store i32 %2, ptr %7, align 4, !tbaa !11
  store ptr %3, ptr %8, align 8, !tbaa !9
  %9 = load ptr, ptr %5, align 8, !tbaa !9
  %10 = load ptr, ptr %6, align 8, !tbaa !9
  %11 = load i32, ptr %7, align 4, !tbaa !11
  %12 = load ptr, ptr %8, align 8, !tbaa !9
  call void @_Z9save_freePKcS0_iPv(ptr noundef %9, ptr noundef %10, i32 noundef %11, ptr noundef %12)
  ret void
}

; Function Attrs: inlinehint mustprogress uwtable
define internal void @_ZL13gmx_snew_implIcEvPKcS1_iRPT_m(ptr noundef %0, ptr noundef %1, i32 noundef %2, ptr noundef nonnull align 8 dereferenceable(8) %3, i64 noundef %4) #2 {
  %6 = alloca ptr, align 8
  %7 = alloca ptr, align 8
  %8 = alloca i32, align 4
  %9 = alloca ptr, align 8
  %10 = alloca i64, align 8
  store ptr %0, ptr %6, align 8, !tbaa !9
  store ptr %1, ptr %7, align 8, !tbaa !9
  store i32 %2, ptr %8, align 4, !tbaa !11
  store ptr %3, ptr %9, align 8, !tbaa !16
  store i64 %4, ptr %10, align 8, !tbaa !19
  %11 = load ptr, ptr %6, align 8, !tbaa !9
  %12 = load ptr, ptr %7, align 8, !tbaa !9
  %13 = load i32, ptr %8, align 4, !tbaa !11
  %14 = load i64, ptr %10, align 8, !tbaa !19
  %15 = call noundef ptr @_Z11save_callocPKcS0_imm(ptr noundef %11, ptr noundef %12, i32 noundef %13, i64 noundef %14, i64 noundef 1)
  %16 = load ptr, ptr %9, align 8, !tbaa !16
  store ptr %15, ptr %16, align 8, !tbaa !9
  ret void
}

; Function Attrs: mustprogress uwtable
define noundef zeroext i1 @_Z10get_a_lineP8_IO_FILEPci(ptr noundef %0, ptr noundef %1, i32 noundef %2) #0 {
  %4 = alloca i1, align 1
  %5 = alloca ptr, align 8
  %6 = alloca ptr, align 8
  %7 = alloca i32, align 4
  %8 = alloca ptr, align 8
  %9 = alloca ptr, align 8
  %10 = alloca i32, align 4
  store ptr %0, ptr %5, align 8, !tbaa !4
  store ptr %1, ptr %6, align 8, !tbaa !9
  store i32 %2, ptr %7, align 4, !tbaa !11
  call void @llvm.lifetime.start.p0(i64 8, ptr %8) #13
  store ptr null, ptr %8, align 8, !tbaa !9
  call void @llvm.lifetime.start.p0(i64 8, ptr %9) #13
  store ptr null, ptr %9, align 8, !tbaa !9
  %11 = load i32, ptr %7, align 4, !tbaa !11
  %12 = add nsw i32 %11, 1
  %13 = sext i32 %12 to i64
  call void @_ZL13gmx_snew_implIcEvPKcS1_iRPT_m(ptr noundef @.str, ptr noundef @.str.1, i32 noundef 57, ptr noundef nonnull align 8 dereferenceable(8) %8, i64 noundef %13)
  br label %14

14:                                               ; preds = %67, %3
  %15 = load ptr, ptr %8, align 8, !tbaa !9
  %16 = load i32, ptr %7, align 4, !tbaa !11
  %17 = add nsw i32 %16, 1
  %18 = load ptr, ptr %5, align 8, !tbaa !4
  %19 = call ptr @fgets(ptr noundef %15, i32 noundef %17, ptr noundef %18)
  %20 = icmp ne ptr %19, null
  br i1 %20, label %23, label %21

21:                                               ; preds = %14
  %22 = load ptr, ptr %8, align 8, !tbaa !9
  call void @_ZL14gmx_sfree_implIcEvPKcS1_iPT_(ptr noundef @.str, ptr noundef @.str.1, i32 noundef 63, ptr noundef %22)
  store i1 false, ptr %4, align 1
  store i32 1, ptr %10, align 4
  br label %75

23:                                               ; preds = %14
  %24 = load ptr, ptr %8, align 8, !tbaa !9
  %25 = call noundef ptr @strchr(ptr noundef %24, i32 noundef 10) #14
  store ptr %25, ptr %9, align 8, !tbaa !9
  %26 = load ptr, ptr %9, align 8, !tbaa !9
  %27 = icmp ne ptr %26, null
  br i1 %27, label %28, label %31

28:                                               ; preds = %23
  %29 = load ptr, ptr %9, align 8, !tbaa !9
  %30 = getelementptr inbounds i8, ptr %29, i64 0
  store i8 0, ptr %30, align 1, !tbaa !13
  br label %51

31:                                               ; preds = %23
  %32 = load ptr, ptr %8, align 8, !tbaa !9
  %33 = call i64 @strlen(ptr noundef %32) #14
  %34 = trunc i64 %33 to i32
  %35 = load i32, ptr %7, align 4, !tbaa !11
  %36 = icmp eq i32 %34, %35
  br i1 %36, label %37, label %46

37:                                               ; preds = %31
  %38 = load ptr, ptr @stderr, align 8, !tbaa !4
  %39 = load i32, ptr %7, align 4, !tbaa !11
  %40 = call i32 (ptr, ptr, ...) @fprintf(ptr noundef %38, ptr noundef @.str.2, i32 noundef %39) #13
  %41 = load ptr, ptr %8, align 8, !tbaa !9
  %42 = load i32, ptr %7, align 4, !tbaa !11
  %43 = sub nsw i32 %42, 1
  %44 = sext i32 %43 to i64
  %45 = getelementptr inbounds i8, ptr %41, i64 %44
  store i8 0, ptr %45, align 1, !tbaa !13
  br label %50

46:                                               ; preds = %31
  %47 = load ptr, ptr @stderr, align 8, !tbaa !4
  %48 = load ptr, ptr %8, align 8, !tbaa !9
  %49 = call i32 (ptr, ptr, ...) @fprintf(ptr noundef %47, ptr noundef @.str.3, ptr noundef %48) #13
  br label %50

50:                                               ; preds = %46, %37
  br label %51

51:                                               ; preds = %50, %28
  %52 = load ptr, ptr %8, align 8, !tbaa !9
  %53 = call noundef ptr @strchr(ptr noundef %52, i32 noundef 59) #14
  store ptr %53, ptr %9, align 8, !tbaa !9
  %54 = load ptr, ptr %9, align 8, !tbaa !9
  %55 = icmp ne ptr %54, null
  br i1 %55, label %56, label %59

56:                                               ; preds = %51
  %57 = load ptr, ptr %9, align 8, !tbaa !9
  %58 = getelementptr inbounds i8, ptr %57, i64 0
  store i8 0, ptr %58, align 1, !tbaa !13
  br label %59

59:                                               ; preds = %56, %51
  %60 = load ptr, ptr %6, align 8, !tbaa !9
  %61 = load ptr, ptr %8, align 8, !tbaa !9
  %62 = load i32, ptr %7, align 4, !tbaa !11
  %63 = sext i32 %62 to i64
  %64 = call ptr @strncpy(ptr noundef %60, ptr noundef %61, i64 noundef %63) #13
  %65 = load ptr, ptr %8, align 8, !tbaa !9
  store ptr %65, ptr %9, align 8, !tbaa !9
  %66 = load ptr, ptr %9, align 8, !tbaa !9
  call void @_Z5ltrimPc(ptr noundef %66)
  br label %67

67:                                               ; preds = %59
  %68 = load ptr, ptr %9, align 8, !tbaa !9
  %69 = getelementptr inbounds i8, ptr %68, i64 0
  %70 = load i8, ptr %69, align 1, !tbaa !13
  %71 = sext i8 %70 to i32
  %72 = icmp eq i32 %71, 0
  br i1 %72, label %14, label %73, !llvm.loop !14

73:                                               ; preds = %67
  %74 = load ptr, ptr %8, align 8, !tbaa !9
  call void @_ZL14gmx_sfree_implIcEvPKcS1_iPT_(ptr noundef @.str, ptr noundef @.str.1, i32 noundef 92, ptr noundef %74)
  store i1 true, ptr %4, align 1
  store i32 1, ptr %10, align 4
  br label %75

75:                                               ; preds = %73, %21
  call void @llvm.lifetime.end.p0(i64 8, ptr %9) #13
  call void @llvm.lifetime.end.p0(i64 8, ptr %8) #13
  %76 = load i1, ptr %4, align 1
  ret i1 %76
}